target datalayout = "e-m:e-p270:32:32-p271:32:32-p272:64:64-i64:64-i128:128-f80:128-n8:16:32:64-S128"
target triple = "x86_64-unknown-linux-gnu"

%"class.dpx::Writer" = type { ptr, %"struct.dpx::Header", i64, ptr }
%"struct.dpx::Header" = type <{ %"struct.dpx::GenericHeader", %"struct.dpx::IndustryHeader", i8, [3 x i8] }>
%"struct.dpx::GenericHeader" = type { i32, i32, [8 x i8], i32, i32, i32, i32, i32, [100 x i8], [24 x i8], [100 x i8], [200 x i8], [200 x i8], i32, [104 x i8], i16, i16, i32, i32, [8 x %"struct.dpx::ImageElement"], [52 x i8], i32, i32, float, float, i32, i32, [100 x i8], [24 x i8], [32 x i8], [32 x i8], [4 x i16], [2 x i32], float, float, [20 x i8] }
%"struct.dpx::ImageElement" = type { i32, i32, float, i32, float, i8, i8, i8, i8, i16, i16, i32, i32, i32, [32 x i8] }
%"struct.dpx::IndustryHeader" = type { [2 x i8], [2 x i8], [2 x i8], [6 x i8], [4 x i8], [32 x i8], i32, i32, i32, float, float, [32 x i8], [100 x i8], [56 x i8], i32, i32, i8, i8, i8, i8, float, float, float, float, float, float, float, float, float, float, [76 x i8] }

; Function Attrs: mustprogress nounwind uwtable
define linkonce_odr hidden noundef i32 @_ZNK3dpx6Header4SizeEv(ptr noundef nonnull align 4 dereferenceable(2049) %this) #1 comdat align 2 {
entry:
  %this.addr = alloca ptr, align 8
  store ptr %this, ptr %this.addr, align 8
  ret i32 2048
}

; Function Attrs: mustprogress uwtable
define hidden noundef zeroext i1 @_ZN3dpx6Writer11WriteHeaderEv(ptr noundef nonnull align 8 dereferenceable(2080) %this) #6 align 2 {
entry:
  %retval = alloca i1, align 1
  %this.addr = alloca ptr, align 8
  store ptr %this, ptr %this.addr, align 8
  %this1 = load ptr, ptr %this.addr, align 8
  %header = getelementptr inbounds %"class.dpx::Writer", ptr %this1, i32 0, i32 1
  call void @_ZN3dpx6Header16CalculateOffsetsEv(ptr noundef nonnull align 4 dereferenceable(2049) %header)
  %fd = getelementptr inbounds %"class.dpx::Writer", ptr %this1, i32 0, i32 3
  %0 = load ptr, ptr %fd, align 8
  %vtable = load ptr, ptr %0, align 8
  %vfn = getelementptr inbounds ptr, ptr %vtable, i64 4
  %1 = load ptr, ptr %vfn, align 8
  %call = call noundef zeroext i1 %1(ptr noundef nonnull align 8 dereferenceable(16) %0, i64 noundef 0, i32 noundef 0)
  br i1 %call, label %if.end, label %if.then

if.then:                                          ; preds = %entry
  store i1 false, ptr %retval, align 1
  br label %return

if.end:                                           ; preds = %entry
  %header2 = getelementptr inbounds %"class.dpx::Writer", ptr %this1, i32 0, i32 1
  %call3 = call noundef i32 @_ZNK3dpx6Header4SizeEv(ptr noundef nonnull align 4 dereferenceable(2049) %header2)
  %conv = zext i32 %call3 to i64
  %fileLoc = getelementptr inbounds %"class.dpx::Writer", ptr %this1, i32 0, i32 2
  store i64 %conv, ptr %fileLoc, align 8
  %header4 = getelementptr inbounds %"class.dpx::Writer", ptr %this1, i32 0, i32 1
  %fd5 = getelementptr inbounds %"class.dpx::Writer", ptr %this1, i32 0, i32 3
  %2 = load ptr, ptr %fd5, align 8
  %call6 = call noundef zeroext i1 @_ZN3dpx6Header5WriteEP9OutStream(ptr noundef nonnull align 4 dereferenceable(2049) %header4, ptr noundef %2)
  store i1 %call6, ptr %retval, align 1
  br label %return

return:                                           ; preds = %if.end, %if.then
  %3 = load i1, ptr %retval, align 1
  ret i1 %3
}