; Function Attrs: mustprogress uwtable
define hidden noundef zeroext i1 @_ZN3dpx6Writer11WriteHeaderEv(ptr noundef nonnull align 8 dereferenceable(2080) %this) local_unnamed_addr #5 align 2 {
entry:
  %header = getelementptr inbounds i8, ptr %this, i64 8
  tail call void @_ZN3dpx6Header16CalculateOffsetsEv(ptr noundef nonnull align 4 dereferenceable(2049) %header)
  %fd = getelementptr inbounds i8, ptr %this, i64 2072
  %0 = load ptr, ptr %fd, align 8
  %vtable = load ptr, ptr %0, align 8
  %vfn = getelementptr inbounds i8, ptr %vtable, i64 32
  %1 = load ptr, ptr %vfn, align 8
  %call = tail call noundef zeroext i1 %1(ptr noundef nonnull align 8 dereferenceable(16) %0, i64 noundef 0, i32 noundef 0)
  br i1 %call, label %if.end, label %return

if.end:                                           ; preds = %entry
  %fileLoc = getelementptr inbounds i8, ptr %this, i64 2064
  store i64 2048, ptr %fileLoc, align 8
  %2 = load ptr, ptr %fd, align 8
  %call6 = tail call noundef zeroext i1 @_ZN3dpx6Header5WriteEP9OutStream(ptr noundef nonnull align 4 dereferenceable(2049) %header, ptr noundef %2)
  br label %return

return:                                           ; preds = %entry, %if.end
  %retval.0 = phi i1 [ %call6, %if.end ], [ false, %entry ]
  ret i1 %retval.0
}